
bomb:     file format elf32-i386


Disassembly of section .init:

08048710 <_init>:
 8048710:	55                   	push   %ebp
 8048711:	89 e5                	mov    %esp,%ebp
 8048713:	83 ec 08             	sub    $0x8,%esp
 8048716:	e8 39 02 00 00       	call   8048954 <call_gmon_start>
 804871b:	e8 90 02 00 00       	call   80489b0 <frame_dummy>
 8048720:	e8 7b 10 00 00       	call   80497a0 <__do_global_ctors_aux>
 8048725:	c9                   	leave  
 8048726:	c3                   	ret    

Disassembly of section .plt:

08048728 <.plt>:
 8048728:	ff 35 e4 a0 04 08    	pushl  0x804a0e4
 804872e:	ff 25 e8 a0 04 08    	jmp    *0x804a0e8
 8048734:	00 00                	add    %al,(%eax)
	...

08048738 <close@plt>:
 8048738:	ff 25 ec a0 04 08    	jmp    *0x804a0ec
 804873e:	68 00 00 00 00       	push   $0x0
 8048743:	e9 e0 ff ff ff       	jmp    8048728 <.plt>

08048748 <fprintf@plt>:
 8048748:	ff 25 f0 a0 04 08    	jmp    *0x804a0f0
 804874e:	68 08 00 00 00       	push   $0x8
 8048753:	e9 d0 ff ff ff       	jmp    8048728 <.plt>

08048758 <tmpfile@plt>:
 8048758:	ff 25 f4 a0 04 08    	jmp    *0x804a0f4
 804875e:	68 10 00 00 00       	push   $0x10
 8048763:	e9 c0 ff ff ff       	jmp    8048728 <.plt>

08048768 <getenv@plt>:
 8048768:	ff 25 f8 a0 04 08    	jmp    *0x804a0f8
 804876e:	68 18 00 00 00       	push   $0x18
 8048773:	e9 b0 ff ff ff       	jmp    8048728 <.plt>

08048778 <signal@plt>:
 8048778:	ff 25 fc a0 04 08    	jmp    *0x804a0fc
 804877e:	68 20 00 00 00       	push   $0x20
 8048783:	e9 a0 ff ff ff       	jmp    8048728 <.plt>

08048788 <fflush@plt>:
 8048788:	ff 25 00 a1 04 08    	jmp    *0x804a100
 804878e:	68 28 00 00 00       	push   $0x28
 8048793:	e9 90 ff ff ff       	jmp    8048728 <.plt>

08048798 <bcopy@plt>:
 8048798:	ff 25 04 a1 04 08    	jmp    *0x804a104
 804879e:	68 30 00 00 00       	push   $0x30
 80487a3:	e9 80 ff ff ff       	jmp    8048728 <.plt>

080487a8 <rewind@plt>:
 80487a8:	ff 25 08 a1 04 08    	jmp    *0x804a108
 80487ae:	68 38 00 00 00       	push   $0x38
 80487b3:	e9 70 ff ff ff       	jmp    8048728 <.plt>

080487b8 <system@plt>:
 80487b8:	ff 25 0c a1 04 08    	jmp    *0x804a10c
 80487be:	68 40 00 00 00       	push   $0x40
 80487c3:	e9 60 ff ff ff       	jmp    8048728 <.plt>

080487c8 <puts@plt>:
 80487c8:	ff 25 10 a1 04 08    	jmp    *0x804a110
 80487ce:	68 48 00 00 00       	push   $0x48
 80487d3:	e9 50 ff ff ff       	jmp    8048728 <.plt>

080487d8 <fgets@plt>:
 80487d8:	ff 25 14 a1 04 08    	jmp    *0x804a114
 80487de:	68 50 00 00 00       	push   $0x50
 80487e3:	e9 40 ff ff ff       	jmp    8048728 <.plt>

080487e8 <sleep@plt>:
 80487e8:	ff 25 18 a1 04 08    	jmp    *0x804a118
 80487ee:	68 58 00 00 00       	push   $0x58
 80487f3:	e9 30 ff ff ff       	jmp    8048728 <.plt>

080487f8 <fputc@plt>:
 80487f8:	ff 25 1c a1 04 08    	jmp    *0x804a11c
 80487fe:	68 60 00 00 00       	push   $0x60
 8048803:	e9 20 ff ff ff       	jmp    8048728 <.plt>

08048808 <__libc_start_main@plt>:
 8048808:	ff 25 20 a1 04 08    	jmp    *0x804a120
 804880e:	68 68 00 00 00       	push   $0x68
 8048813:	e9 10 ff ff ff       	jmp    8048728 <.plt>

08048818 <printf@plt>:
 8048818:	ff 25 24 a1 04 08    	jmp    *0x804a124
 804881e:	68 70 00 00 00       	push   $0x70
 8048823:	e9 00 ff ff ff       	jmp    8048728 <.plt>

08048828 <fclose@plt>:
 8048828:	ff 25 28 a1 04 08    	jmp    *0x804a128
 804882e:	68 78 00 00 00       	push   $0x78
 8048833:	e9 f0 fe ff ff       	jmp    8048728 <.plt>

08048838 <gethostbyname@plt>:
 8048838:	ff 25 2c a1 04 08    	jmp    *0x804a12c
 804883e:	68 80 00 00 00       	push   $0x80
 8048843:	e9 e0 fe ff ff       	jmp    8048728 <.plt>

08048848 <exit@plt>:
 8048848:	ff 25 30 a1 04 08    	jmp    *0x804a130
 804884e:	68 88 00 00 00       	push   $0x88
 8048853:	e9 d0 fe ff ff       	jmp    8048728 <.plt>

08048858 <atoi@plt>:
 8048858:	ff 25 34 a1 04 08    	jmp    *0x804a134
 804885e:	68 90 00 00 00       	push   $0x90
 8048863:	e9 c0 fe ff ff       	jmp    8048728 <.plt>

08048868 <sscanf@plt>:
 8048868:	ff 25 38 a1 04 08    	jmp    *0x804a138
 804886e:	68 98 00 00 00       	push   $0x98
 8048873:	e9 b0 fe ff ff       	jmp    8048728 <.plt>

08048878 <htons@plt>:
 8048878:	ff 25 3c a1 04 08    	jmp    *0x804a13c
 804887e:	68 a0 00 00 00       	push   $0xa0
 8048883:	e9 a0 fe ff ff       	jmp    8048728 <.plt>

08048888 <connect@plt>:
 8048888:	ff 25 40 a1 04 08    	jmp    *0x804a140
 804888e:	68 a8 00 00 00       	push   $0xa8
 8048893:	e9 90 fe ff ff       	jmp    8048728 <.plt>

08048898 <fopen@plt>:
 8048898:	ff 25 44 a1 04 08    	jmp    *0x804a144
 804889e:	68 b0 00 00 00       	push   $0xb0
 80488a3:	e9 80 fe ff ff       	jmp    8048728 <.plt>

080488a8 <dup@plt>:
 80488a8:	ff 25 48 a1 04 08    	jmp    *0x804a148
 80488ae:	68 b8 00 00 00       	push   $0xb8
 80488b3:	e9 70 fe ff ff       	jmp    8048728 <.plt>

080488b8 <sprintf@plt>:
 80488b8:	ff 25 4c a1 04 08    	jmp    *0x804a14c
 80488be:	68 c0 00 00 00       	push   $0xc0
 80488c3:	e9 60 fe ff ff       	jmp    8048728 <.plt>

080488c8 <fwrite@plt>:
 80488c8:	ff 25 50 a1 04 08    	jmp    *0x804a150
 80488ce:	68 c8 00 00 00       	push   $0xc8
 80488d3:	e9 50 fe ff ff       	jmp    8048728 <.plt>

080488d8 <socket@plt>:
 80488d8:	ff 25 54 a1 04 08    	jmp    *0x804a154
 80488de:	68 d0 00 00 00       	push   $0xd0
 80488e3:	e9 40 fe ff ff       	jmp    8048728 <.plt>

080488e8 <__ctype_b_loc@plt>:
 80488e8:	ff 25 58 a1 04 08    	jmp    *0x804a158
 80488ee:	68 d8 00 00 00       	push   $0xd8
 80488f3:	e9 30 fe ff ff       	jmp    8048728 <.plt>

080488f8 <cuserid@plt>:
 80488f8:	ff 25 5c a1 04 08    	jmp    *0x804a15c
 80488fe:	68 e0 00 00 00       	push   $0xe0
 8048903:	e9 20 fe ff ff       	jmp    8048728 <.plt>

08048908 <__gmon_start__@plt>:
 8048908:	ff 25 60 a1 04 08    	jmp    *0x804a160
 804890e:	68 e8 00 00 00       	push   $0xe8
 8048913:	e9 10 fe ff ff       	jmp    8048728 <.plt>

08048918 <strcpy@plt>:
 8048918:	ff 25 64 a1 04 08    	jmp    *0x804a164
 804891e:	68 f0 00 00 00       	push   $0xf0
 8048923:	e9 00 fe ff ff       	jmp    8048728 <.plt>

Disassembly of section .text:

08048930 <_start>:
 8048930:	31 ed                	xor    %ebp,%ebp
 8048932:	5e                   	pop    %esi
 8048933:	89 e1                	mov    %esp,%ecx
 8048935:	83 e4 f0             	and    $0xfffffff0,%esp
 8048938:	50                   	push   %eax
 8048939:	54                   	push   %esp
 804893a:	52                   	push   %edx
 804893b:	68 f0 96 04 08       	push   $0x80496f0
 8048940:	68 40 97 04 08       	push   $0x8049740
 8048945:	51                   	push   %ecx
 8048946:	56                   	push   %esi
 8048947:	68 d4 89 04 08       	push   $0x80489d4
 804894c:	e8 b7 fe ff ff       	call   8048808 <__libc_start_main@plt>
 8048951:	f4                   	hlt    
 8048952:	90                   	nop
 8048953:	90                   	nop

08048954 <call_gmon_start>:
 8048954:	55                   	push   %ebp
 8048955:	89 e5                	mov    %esp,%ebp
 8048957:	53                   	push   %ebx
 8048958:	83 ec 04             	sub    $0x4,%esp
 804895b:	e8 00 00 00 00       	call   8048960 <call_gmon_start+0xc>
 8048960:	5b                   	pop    %ebx
 8048961:	81 c3 80 17 00 00    	add    $0x1780,%ebx
 8048967:	8b 93 fc ff ff ff    	mov    -0x4(%ebx),%edx
 804896d:	85 d2                	test   %edx,%edx
 804896f:	74 05                	je     8048976 <call_gmon_start+0x22>
 8048971:	e8 92 ff ff ff       	call   8048908 <__gmon_start__@plt>
 8048976:	58                   	pop    %eax
 8048977:	5b                   	pop    %ebx
 8048978:	c9                   	leave  
 8048979:	c3                   	ret    
 804897a:	90                   	nop
 804897b:	90                   	nop
 804897c:	90                   	nop
 804897d:	90                   	nop
 804897e:	90                   	nop
 804897f:	90                   	nop

08048980 <__do_global_dtors_aux>:
 8048980:	55                   	push   %ebp
 8048981:	89 e5                	mov    %esp,%ebp
 8048983:	83 ec 08             	sub    $0x8,%esp
 8048986:	80 3d 48 a8 04 08 00 	cmpb   $0x0,0x804a848
 804898d:	74 0c                	je     804899b <__do_global_dtors_aux+0x1b>
 804898f:	eb 1c                	jmp    80489ad <__do_global_dtors_aux+0x2d>
 8048991:	83 c0 04             	add    $0x4,%eax
 8048994:	a3 88 a1 04 08       	mov    %eax,0x804a188
 8048999:	ff d2                	call   *%edx
 804899b:	a1 88 a1 04 08       	mov    0x804a188,%eax
 80489a0:	8b 10                	mov    (%eax),%edx
 80489a2:	85 d2                	test   %edx,%edx
 80489a4:	75 eb                	jne    8048991 <__do_global_dtors_aux+0x11>
 80489a6:	c6 05 48 a8 04 08 01 	movb   $0x1,0x804a848
 80489ad:	c9                   	leave  
 80489ae:	c3                   	ret    
 80489af:	90                   	nop

080489b0 <frame_dummy>:
 80489b0:	55                   	push   %ebp
 80489b1:	89 e5                	mov    %esp,%ebp
 80489b3:	83 ec 08             	sub    $0x8,%esp
 80489b6:	a1 10 a0 04 08       	mov    0x804a010,%eax
 80489bb:	85 c0                	test   %eax,%eax
 80489bd:	74 12                	je     80489d1 <frame_dummy+0x21>
 80489bf:	b8 00 00 00 00       	mov    $0x0,%eax
 80489c4:	85 c0                	test   %eax,%eax
 80489c6:	74 09                	je     80489d1 <frame_dummy+0x21>
 80489c8:	c7 04 24 10 a0 04 08 	movl   $0x804a010,(%esp)
 80489cf:	ff d0                	call   *%eax
 80489d1:	c9                   	leave  
 80489d2:	c3                   	ret    
 80489d3:	90                   	nop

080489d4 <main>:
 80489d4:	8d 4c 24 04          	lea    0x4(%esp),%ecx
 80489d8:	83 e4 f0             	and    $0xfffffff0,%esp
 80489db:	ff 71 fc             	pushl  -0x4(%ecx)
 80489de:	55                   	push   %ebp
 80489df:	89 e5                	mov    %esp,%ebp
 80489e1:	51                   	push   %ecx
 80489e2:	83 ec 24             	sub    $0x24,%esp
 80489e5:	89 4d e8             	mov    %ecx,-0x18(%ebp)
 80489e8:	8b 45 e8             	mov    -0x18(%ebp),%eax
 80489eb:	83 38 01             	cmpl   $0x1,(%eax)
 80489ee:	75 0f                	jne    80489ff <main+0x2b>
 80489f0:	a1 44 a8 04 08       	mov    0x804a844,%eax
 80489f5:	a3 50 a8 04 08       	mov    %eax,0x804a850
 80489fa:	e9 88 00 00 00       	jmp    8048a87 <main+0xb3>
 80489ff:	8b 55 e8             	mov    -0x18(%ebp),%edx
 8048a02:	83 3a 02             	cmpl   $0x2,(%edx)
 8048a05:	75 5c                	jne    8048a63 <main+0x8f>
 8048a07:	8b 4d e8             	mov    -0x18(%ebp),%ecx
 8048a0a:	8b 41 04             	mov    0x4(%ecx),%eax
 8048a0d:	83 c0 04             	add    $0x4,%eax
 8048a10:	8b 00                	mov    (%eax),%eax
 8048a12:	c7 44 24 04 f8 97 04 	movl   $0x80497f8,0x4(%esp)
 8048a19:	08 
 8048a1a:	89 04 24             	mov    %eax,(%esp)
 8048a1d:	e8 76 fe ff ff       	call   8048898 <fopen@plt>
 8048a22:	a3 50 a8 04 08       	mov    %eax,0x804a850
 8048a27:	a1 50 a8 04 08       	mov    0x804a850,%eax
 8048a2c:	85 c0                	test   %eax,%eax
 8048a2e:	75 57                	jne    8048a87 <main+0xb3>
 8048a30:	8b 55 e8             	mov    -0x18(%ebp),%edx
 8048a33:	8b 42 04             	mov    0x4(%edx),%eax
 8048a36:	83 c0 04             	add    $0x4,%eax
 8048a39:	8b 10                	mov    (%eax),%edx
 8048a3b:	8b 4d e8             	mov    -0x18(%ebp),%ecx
 8048a3e:	8b 41 04             	mov    0x4(%ecx),%eax
 8048a41:	8b 00                	mov    (%eax),%eax
 8048a43:	89 54 24 08          	mov    %edx,0x8(%esp)
 8048a47:	89 44 24 04          	mov    %eax,0x4(%esp)
 8048a4b:	c7 04 24 fa 97 04 08 	movl   $0x80497fa,(%esp)
 8048a52:	e8 c1 fd ff ff       	call   8048818 <printf@plt>
 8048a57:	c7 04 24 08 00 00 00 	movl   $0x8,(%esp)
 8048a5e:	e8 e5 fd ff ff       	call   8048848 <exit@plt>
 8048a63:	8b 55 e8             	mov    -0x18(%ebp),%edx
 8048a66:	8b 42 04             	mov    0x4(%edx),%eax
 8048a69:	8b 00                	mov    (%eax),%eax
 8048a6b:	89 44 24 04          	mov    %eax,0x4(%esp)
 8048a6f:	c7 04 24 17 98 04 08 	movl   $0x8049817,(%esp)
 8048a76:	e8 9d fd ff ff       	call   8048818 <printf@plt>
 8048a7b:	c7 04 24 08 00 00 00 	movl   $0x8,(%esp)
 8048a82:	e8 c1 fd ff ff       	call   8048848 <exit@plt>
 8048a87:	e8 67 07 00 00       	call   80491f3 <initialize_bomb>
 8048a8c:	c7 04 24 34 98 04 08 	movl   $0x8049834,(%esp)
 8048a93:	e8 30 fd ff ff       	call   80487c8 <puts@plt>
 8048a98:	c7 04 24 70 98 04 08 	movl   $0x8049870,(%esp)
 8048a9f:	e8 24 fd ff ff       	call   80487c8 <puts@plt>
 8048aa4:	e8 09 08 00 00       	call   80492b2 <read_line>
 8048aa9:	89 45 f8             	mov    %eax,-0x8(%ebp)
 8048aac:	8b 45 f8             	mov    -0x8(%ebp),%eax
 8048aaf:	89 04 24             	mov    %eax,(%esp)
 8048ab2:	e8 c9 00 00 00       	call   8048b80 <phase_1>
 8048ab7:	e8 ac 0b 00 00       	call   8049668 <phase_defused>
 8048abc:	c7 04 24 9c 98 04 08 	movl   $0x804989c,(%esp)
 8048ac3:	e8 00 fd ff ff       	call   80487c8 <puts@plt>
 8048ac8:	e8 e5 07 00 00       	call   80492b2 <read_line>
 8048acd:	89 45 f8             	mov    %eax,-0x8(%ebp)
 8048ad0:	8b 45 f8             	mov    -0x8(%ebp),%eax
 8048ad3:	89 04 24             	mov    %eax,(%esp)
 8048ad6:	e8 c9 00 00 00       	call   8048ba4 <phase_2>
 8048adb:	e8 88 0b 00 00       	call   8049668 <phase_defused>
 8048ae0:	c7 04 24 c5 98 04 08 	movl   $0x80498c5,(%esp)
 8048ae7:	e8 dc fc ff ff       	call   80487c8 <puts@plt>
 8048aec:	e8 c1 07 00 00       	call   80492b2 <read_line>
 8048af1:	89 45 f8             	mov    %eax,-0x8(%ebp)
 8048af4:	8b 45 f8             	mov    -0x8(%ebp),%eax
 8048af7:	89 04 24             	mov    %eax,(%esp)
 8048afa:	e8 ec 00 00 00       	call   8048beb <phase_3>
 8048aff:	e8 64 0b 00 00       	call   8049668 <phase_defused>
 8048b04:	c7 04 24 e3 98 04 08 	movl   $0x80498e3,(%esp)
 8048b0b:	e8 b8 fc ff ff       	call   80487c8 <puts@plt>
 8048b10:	e8 9d 07 00 00       	call   80492b2 <read_line>
 8048b15:	89 45 f8             	mov    %eax,-0x8(%ebp)
 8048b18:	8b 45 f8             	mov    -0x8(%ebp),%eax
 8048b1b:	89 04 24             	mov    %eax,(%esp)
 8048b1e:	e8 b6 01 00 00       	call   8048cd9 <phase_4>
 8048b23:	e8 40 0b 00 00       	call   8049668 <phase_defused>
 8048b28:	c7 04 24 f4 98 04 08 	movl   $0x80498f4,(%esp)
 8048b2f:	e8 94 fc ff ff       	call   80487c8 <puts@plt>
 8048b34:	e8 79 07 00 00       	call   80492b2 <read_line>
 8048b39:	89 45 f8             	mov    %eax,-0x8(%ebp)
 8048b3c:	8b 45 f8             	mov    -0x8(%ebp),%eax
 8048b3f:	89 04 24             	mov    %eax,(%esp)
 8048b42:	e8 e2 01 00 00       	call   8048d29 <phase_5>
 8048b47:	e8 1c 0b 00 00       	call   8049668 <phase_defused>
 8048b4c:	c7 04 24 18 99 04 08 	movl   $0x8049918,(%esp)
 8048b53:	e8 70 fc ff ff       	call   80487c8 <puts@plt>
 8048b58:	e8 55 07 00 00       	call   80492b2 <read_line>
 8048b5d:	89 45 f8             	mov    %eax,-0x8(%ebp)
 8048b60:	8b 45 f8             	mov    -0x8(%ebp),%eax
 8048b63:	89 04 24             	mov    %eax,(%esp)
 8048b66:	e8 c2 02 00 00       	call   8048e2d <phase_6>
 8048b6b:	e8 f8 0a 00 00       	call   8049668 <phase_defused>
 8048b70:	b8 00 00 00 00       	mov    $0x0,%eax
 8048b75:	83 c4 24             	add    $0x24,%esp
 8048b78:	59                   	pop    %ecx
 8048b79:	5d                   	pop    %ebp
 8048b7a:	8d 61 fc             	lea    -0x4(%ecx),%esp
 8048b7d:	c3                   	ret    
 8048b7e:	90                   	nop
 8048b7f:	90                   	nop

08048b80 <phase_1>:
 8048b80:	55                   	push   %ebp
 8048b81:	89 e5                	mov    %esp,%ebp
 8048b83:	83 ec 08             	sub    $0x8,%esp
 8048b86:	c7 44 24 04 38 99 04 	movl   $0x8049938,0x4(%esp)
 8048b8d:	08 
 8048b8e:	8b 45 08             	mov    0x8(%ebp),%eax
 8048b91:	89 04 24             	mov    %eax,(%esp)
 8048b94:	e8 de 04 00 00       	call   8049077 <strings_not_equal>
 8048b99:	85 c0                	test   %eax,%eax
 8048b9b:	74 05                	je     8048ba2 <phase_1+0x22>
 8048b9d:	e8 9c 0a 00 00       	call   804963e <explode_bomb>
 8048ba2:	c9                   	leave  
 8048ba3:	c3                   	ret    

08048ba4 <phase_2>:
 8048ba4:	55                   	push   %ebp
 8048ba5:	89 e5                	mov    %esp,%ebp
 8048ba7:	83 ec 28             	sub    $0x28,%esp
 8048baa:	8d 45 e4             	lea    -0x1c(%ebp),%eax
 8048bad:	89 44 24 04          	mov    %eax,0x4(%esp)
 8048bb1:	8b 45 08             	mov    0x8(%ebp),%eax
 8048bb4:	89 04 24             	mov    %eax,(%esp)
 8048bb7:	e8 28 04 00 00       	call   8048fe4 <read_six_numbers>
 8048bbc:	c7 45 fc 01 00 00 00 	movl   $0x1,-0x4(%ebp)
 8048bc3:	eb 1e                	jmp    8048be3 <phase_2+0x3f>
 8048bc5:	8b 45 fc             	mov    -0x4(%ebp),%eax
 8048bc8:	8b 54 85 e4          	mov    -0x1c(%ebp,%eax,4),%edx
 8048bcc:	8b 45 fc             	mov    -0x4(%ebp),%eax
 8048bcf:	48                   	dec    %eax
 8048bd0:	8b 44 85 e4          	mov    -0x1c(%ebp,%eax,4),%eax
 8048bd4:	83 c0 05             	add    $0x5,%eax
 8048bd7:	39 c2                	cmp    %eax,%edx
 8048bd9:	74 05                	je     8048be0 <phase_2+0x3c>
 8048bdb:	e8 5e 0a 00 00       	call   804963e <explode_bomb>
 8048be0:	ff 45 fc             	incl   -0x4(%ebp)
 8048be3:	83 7d fc 05          	cmpl   $0x5,-0x4(%ebp)
 8048be7:	7e dc                	jle    8048bc5 <phase_2+0x21>
 8048be9:	c9                   	leave  
 8048bea:	c3                   	ret    

08048beb <phase_3>:
 8048beb:	55                   	push   %ebp
 8048bec:	89 e5                	mov    %esp,%ebp
 8048bee:	83 ec 28             	sub    $0x28,%esp
 8048bf1:	c7 45 f8 00 00 00 00 	movl   $0x0,-0x8(%ebp)
 8048bf8:	c7 45 fc 00 00 00 00 	movl   $0x0,-0x4(%ebp)
 8048bff:	8d 45 f0             	lea    -0x10(%ebp),%eax
 8048c02:	89 44 24 0c          	mov    %eax,0xc(%esp)
 8048c06:	8d 45 f4             	lea    -0xc(%ebp),%eax
 8048c09:	89 44 24 08          	mov    %eax,0x8(%esp)
 8048c0d:	c7 44 24 04 62 99 04 	movl   $0x8049962,0x4(%esp)
 8048c14:	08 
 8048c15:	8b 45 08             	mov    0x8(%ebp),%eax
 8048c18:	89 04 24             	mov    %eax,(%esp)
 8048c1b:	e8 48 fc ff ff       	call   8048868 <sscanf@plt>
 8048c20:	89 45 fc             	mov    %eax,-0x4(%ebp)
 8048c23:	83 7d fc 01          	cmpl   $0x1,-0x4(%ebp)
 8048c27:	7f 05                	jg     8048c2e <phase_3+0x43>
 8048c29:	e8 10 0a 00 00       	call   804963e <explode_bomb>
 8048c2e:	8b 45 f4             	mov    -0xc(%ebp),%eax
 8048c31:	89 45 ec             	mov    %eax,-0x14(%ebp)
 8048c34:	83 7d ec 07          	cmpl   $0x7,-0x14(%ebp)
 8048c38:	77 43                	ja     8048c7d <phase_3+0x92>
 8048c3a:	8b 55 ec             	mov    -0x14(%ebp),%edx
 8048c3d:	8b 04 95 68 99 04 08 	mov    0x8049968(,%edx,4),%eax
 8048c44:	ff e0                	jmp    *%eax
 8048c46:	81 45 f8 bd 00 00 00 	addl   $0xbd,-0x8(%ebp)
 8048c4d:	81 6d f8 a7 02 00 00 	subl   $0x2a7,-0x8(%ebp)
 8048c54:	83 45 f8 7c          	addl   $0x7c,-0x8(%ebp)
 8048c58:	81 6d f8 a4 01 00 00 	subl   $0x1a4,-0x8(%ebp)
 8048c5f:	81 45 f8 cc 00 00 00 	addl   $0xcc,-0x8(%ebp)
 8048c66:	81 6d f8 29 02 00 00 	subl   $0x229,-0x8(%ebp)
 8048c6d:	81 45 f8 29 02 00 00 	addl   $0x229,-0x8(%ebp)
 8048c74:	81 6d f8 2c 03 00 00 	subl   $0x32c,-0x8(%ebp)
 8048c7b:	eb 05                	jmp    8048c82 <phase_3+0x97>
 8048c7d:	e8 bc 09 00 00       	call   804963e <explode_bomb>
 8048c82:	8b 45 f4             	mov    -0xc(%ebp),%eax
 8048c85:	83 f8 05             	cmp    $0x5,%eax
 8048c88:	7f 08                	jg     8048c92 <phase_3+0xa7>
 8048c8a:	8b 45 f0             	mov    -0x10(%ebp),%eax
 8048c8d:	39 45 f8             	cmp    %eax,-0x8(%ebp)
 8048c90:	74 05                	je     8048c97 <phase_3+0xac>
 8048c92:	e8 a7 09 00 00       	call   804963e <explode_bomb>
 8048c97:	c9                   	leave  
 8048c98:	c3                   	ret    

08048c99 <func4>:
 8048c99:	55                   	push   %ebp
 8048c9a:	89 e5                	mov    %esp,%ebp
 8048c9c:	53                   	push   %ebx
 8048c9d:	83 ec 08             	sub    $0x8,%esp
 8048ca0:	83 7d 08 01          	cmpl   $0x1,0x8(%ebp)
 8048ca4:	7f 09                	jg     8048caf <func4+0x16>
 8048ca6:	c7 45 f8 01 00 00 00 	movl   $0x1,-0x8(%ebp)
 8048cad:	eb 21                	jmp    8048cd0 <func4+0x37>
 8048caf:	8b 45 08             	mov    0x8(%ebp),%eax
 8048cb2:	48                   	dec    %eax
 8048cb3:	89 04 24             	mov    %eax,(%esp)
 8048cb6:	e8 de ff ff ff       	call   8048c99 <func4>
 8048cbb:	89 c3                	mov    %eax,%ebx
 8048cbd:	8b 45 08             	mov    0x8(%ebp),%eax
 8048cc0:	83 e8 02             	sub    $0x2,%eax
 8048cc3:	89 04 24             	mov    %eax,(%esp)
 8048cc6:	e8 ce ff ff ff       	call   8048c99 <func4>
 8048ccb:	01 c3                	add    %eax,%ebx
 8048ccd:	89 5d f8             	mov    %ebx,-0x8(%ebp)
 8048cd0:	8b 45 f8             	mov    -0x8(%ebp),%eax
 8048cd3:	83 c4 08             	add    $0x8,%esp
 8048cd6:	5b                   	pop    %ebx
 8048cd7:	5d                   	pop    %ebp
 8048cd8:	c3                   	ret    

08048cd9 <phase_4>:
 8048cd9:	55                   	push   %ebp
 8048cda:	89 e5                	mov    %esp,%ebp
 8048cdc:	83 ec 28             	sub    $0x28,%esp
 8048cdf:	8d 45 f4             	lea    -0xc(%ebp),%eax
 8048ce2:	89 44 24 08          	mov    %eax,0x8(%esp)
 8048ce6:	c7 44 24 04 88 99 04 	movl   $0x8049988,0x4(%esp)
 8048ced:	08 
 8048cee:	8b 45 08             	mov    0x8(%ebp),%eax
 8048cf1:	89 04 24             	mov    %eax,(%esp)
 8048cf4:	e8 6f fb ff ff       	call   8048868 <sscanf@plt>
 8048cf9:	89 45 fc             	mov    %eax,-0x4(%ebp)
 8048cfc:	83 7d fc 01          	cmpl   $0x1,-0x4(%ebp)
 8048d00:	75 07                	jne    8048d09 <phase_4+0x30>
 8048d02:	8b 45 f4             	mov    -0xc(%ebp),%eax
 8048d05:	85 c0                	test   %eax,%eax
 8048d07:	7f 05                	jg     8048d0e <phase_4+0x35>
 8048d09:	e8 30 09 00 00       	call   804963e <explode_bomb>
 8048d0e:	8b 45 f4             	mov    -0xc(%ebp),%eax
 8048d11:	89 04 24             	mov    %eax,(%esp)
 8048d14:	e8 80 ff ff ff       	call   8048c99 <func4>
 8048d19:	89 45 f8             	mov    %eax,-0x8(%ebp)
 8048d1c:	83 7d f8 37          	cmpl   $0x37,-0x8(%ebp)
 8048d20:	74 05                	je     8048d27 <phase_4+0x4e>
 8048d22:	e8 17 09 00 00       	call   804963e <explode_bomb>
 8048d27:	c9                   	leave  
 8048d28:	c3                   	ret    

08048d29 <phase_5>:
 8048d29:	55                   	push   %ebp
 8048d2a:	89 e5                	mov    %esp,%ebp
 8048d2c:	83 ec 18             	sub    $0x18,%esp
 8048d2f:	8b 45 08             	mov    0x8(%ebp),%eax
 8048d32:	89 04 24             	mov    %eax,(%esp)
 8048d35:	e8 13 03 00 00       	call   804904d <string_length>
 8048d3a:	89 45 fc             	mov    %eax,-0x4(%ebp)
 8048d3d:	83 7d fc 06          	cmpl   $0x6,-0x4(%ebp)
 8048d41:	74 05                	je     8048d48 <phase_5+0x1f>
 8048d43:	e8 f6 08 00 00       	call   804963e <explode_bomb>
 8048d48:	c7 45 f8 00 00 00 00 	movl   $0x0,-0x8(%ebp)
 8048d4f:	eb 20                	jmp    8048d71 <phase_5+0x48>
 8048d51:	8b 55 f8             	mov    -0x8(%ebp),%edx
 8048d54:	8b 45 f8             	mov    -0x8(%ebp),%eax
 8048d57:	03 45 08             	add    0x8(%ebp),%eax
 8048d5a:	0f b6 00             	movzbl (%eax),%eax
 8048d5d:	0f be c0             	movsbl %al,%eax
 8048d60:	83 e0 0f             	and    $0xf,%eax
 8048d63:	0f b6 80 c0 a5 04 08 	movzbl 0x804a5c0(%eax),%eax
 8048d6a:	88 44 15 f1          	mov    %al,-0xf(%ebp,%edx,1)
 8048d6e:	ff 45 f8             	incl   -0x8(%ebp)
 8048d71:	83 7d f8 05          	cmpl   $0x5,-0x8(%ebp)
 8048d75:	7e da                	jle    8048d51 <phase_5+0x28>
 8048d77:	c6 45 f7 00          	movb   $0x0,-0x9(%ebp)
 8048d7b:	c7 44 24 04 8b 99 04 	movl   $0x804998b,0x4(%esp)
 8048d82:	08 
 8048d83:	8d 45 f1             	lea    -0xf(%ebp),%eax
 8048d86:	89 04 24             	mov    %eax,(%esp)
 8048d89:	e8 e9 02 00 00       	call   8049077 <strings_not_equal>
 8048d8e:	85 c0                	test   %eax,%eax
 8048d90:	74 05                	je     8048d97 <phase_5+0x6e>
 8048d92:	e8 a7 08 00 00       	call   804963e <explode_bomb>
 8048d97:	c9                   	leave  
 8048d98:	c3                   	ret    

08048d99 <fun6>:
 8048d99:	55                   	push   %ebp
 8048d9a:	89 e5                	mov    %esp,%ebp
 8048d9c:	83 ec 10             	sub    $0x10,%esp
 8048d9f:	8b 45 08             	mov    0x8(%ebp),%eax
 8048da2:	89 45 f0             	mov    %eax,-0x10(%ebp)
 8048da5:	8b 45 08             	mov    0x8(%ebp),%eax
 8048da8:	89 45 f0             	mov    %eax,-0x10(%ebp)
 8048dab:	8b 45 08             	mov    0x8(%ebp),%eax
 8048dae:	8b 40 08             	mov    0x8(%eax),%eax
 8048db1:	89 45 f4             	mov    %eax,-0xc(%ebp)
 8048db4:	8b 45 f0             	mov    -0x10(%ebp),%eax
 8048db7:	c7 40 08 00 00 00 00 	movl   $0x0,0x8(%eax)
 8048dbe:	eb 62                	jmp    8048e22 <fun6+0x89>
 8048dc0:	8b 45 f0             	mov    -0x10(%ebp),%eax
 8048dc3:	89 45 fc             	mov    %eax,-0x4(%ebp)
 8048dc6:	8b 45 f0             	mov    -0x10(%ebp),%eax
 8048dc9:	89 45 f8             	mov    %eax,-0x8(%ebp)
 8048dcc:	eb 0f                	jmp    8048ddd <fun6+0x44>
 8048dce:	8b 45 fc             	mov    -0x4(%ebp),%eax
 8048dd1:	89 45 f8             	mov    %eax,-0x8(%ebp)
 8048dd4:	8b 45 fc             	mov    -0x4(%ebp),%eax
 8048dd7:	8b 40 08             	mov    0x8(%eax),%eax
 8048dda:	89 45 fc             	mov    %eax,-0x4(%ebp)
 8048ddd:	83 7d fc 00          	cmpl   $0x0,-0x4(%ebp)
 8048de1:	74 0e                	je     8048df1 <fun6+0x58>
 8048de3:	8b 45 fc             	mov    -0x4(%ebp),%eax
 8048de6:	8b 10                	mov    (%eax),%edx
 8048de8:	8b 45 f4             	mov    -0xc(%ebp),%eax
 8048deb:	8b 00                	mov    (%eax),%eax
 8048ded:	39 c2                	cmp    %eax,%edx
 8048def:	7f dd                	jg     8048dce <fun6+0x35>
 8048df1:	8b 45 f8             	mov    -0x8(%ebp),%eax
 8048df4:	3b 45 fc             	cmp    -0x4(%ebp),%eax
 8048df7:	74 0b                	je     8048e04 <fun6+0x6b>
 8048df9:	8b 55 f8             	mov    -0x8(%ebp),%edx
 8048dfc:	8b 45 f4             	mov    -0xc(%ebp),%eax
 8048dff:	89 42 08             	mov    %eax,0x8(%edx)
 8048e02:	eb 06                	jmp    8048e0a <fun6+0x71>
 8048e04:	8b 45 f4             	mov    -0xc(%ebp),%eax
 8048e07:	89 45 f0             	mov    %eax,-0x10(%ebp)
 8048e0a:	8b 45 f4             	mov    -0xc(%ebp),%eax
 8048e0d:	8b 40 08             	mov    0x8(%eax),%eax
 8048e10:	89 45 f8             	mov    %eax,-0x8(%ebp)
 8048e13:	8b 55 f4             	mov    -0xc(%ebp),%edx
 8048e16:	8b 45 fc             	mov    -0x4(%ebp),%eax
 8048e19:	89 42 08             	mov    %eax,0x8(%edx)
 8048e1c:	8b 45 f8             	mov    -0x8(%ebp),%eax
 8048e1f:	89 45 f4             	mov    %eax,-0xc(%ebp)
 8048e22:	83 7d f4 00          	cmpl   $0x0,-0xc(%ebp)
 8048e26:	75 98                	jne    8048dc0 <fun6+0x27>
 8048e28:	8b 45 f0             	mov    -0x10(%ebp),%eax
 8048e2b:	c9                   	leave  
 8048e2c:	c3                   	ret    

08048e2d <phase_6>:
 8048e2d:	55                   	push   %ebp
 8048e2e:	89 e5                	mov    %esp,%ebp
 8048e30:	83 ec 18             	sub    $0x18,%esp
 8048e33:	c7 45 f8 3c a6 04 08 	movl   $0x804a63c,-0x8(%ebp)
 8048e3a:	8b 45 08             	mov    0x8(%ebp),%eax
 8048e3d:	89 04 24             	mov    %eax,(%esp)
 8048e40:	e8 13 fa ff ff       	call   8048858 <atoi@plt>
 8048e45:	89 c2                	mov    %eax,%edx
 8048e47:	8b 45 f8             	mov    -0x8(%ebp),%eax
 8048e4a:	89 10                	mov    %edx,(%eax)
 8048e4c:	8b 45 f8             	mov    -0x8(%ebp),%eax
 8048e4f:	89 04 24             	mov    %eax,(%esp)
 8048e52:	e8 42 ff ff ff       	call   8048d99 <fun6>
 8048e57:	89 45 f8             	mov    %eax,-0x8(%ebp)
 8048e5a:	8b 45 f8             	mov    -0x8(%ebp),%eax
 8048e5d:	89 45 fc             	mov    %eax,-0x4(%ebp)
 8048e60:	c7 45 f4 01 00 00 00 	movl   $0x1,-0xc(%ebp)
 8048e67:	eb 0c                	jmp    8048e75 <phase_6+0x48>
 8048e69:	8b 45 fc             	mov    -0x4(%ebp),%eax
 8048e6c:	8b 40 08             	mov    0x8(%eax),%eax
 8048e6f:	89 45 fc             	mov    %eax,-0x4(%ebp)
 8048e72:	ff 45 f4             	incl   -0xc(%ebp)
 8048e75:	83 7d f4 04          	cmpl   $0x4,-0xc(%ebp)
 8048e79:	7e ee                	jle    8048e69 <phase_6+0x3c>
 8048e7b:	8b 45 fc             	mov    -0x4(%ebp),%eax
 8048e7e:	8b 10                	mov    (%eax),%edx
 8048e80:	a1 3c a6 04 08       	mov    0x804a63c,%eax
 8048e85:	39 c2                	cmp    %eax,%edx
 8048e87:	74 05                	je     8048e8e <phase_6+0x61>
 8048e89:	e8 b0 07 00 00       	call   804963e <explode_bomb>
 8048e8e:	c9                   	leave  
 8048e8f:	c3                   	ret    

08048e90 <fun7>:
 8048e90:	55                   	push   %ebp
 8048e91:	89 e5                	mov    %esp,%ebp
 8048e93:	83 ec 0c             	sub    $0xc,%esp
 8048e96:	83 7d 08 00          	cmpl   $0x0,0x8(%ebp)
 8048e9a:	75 09                	jne    8048ea5 <fun7+0x15>
 8048e9c:	c7 45 fc ff ff ff ff 	movl   $0xffffffff,-0x4(%ebp)
 8048ea3:	eb 54                	jmp    8048ef9 <fun7+0x69>
 8048ea5:	8b 45 08             	mov    0x8(%ebp),%eax
 8048ea8:	8b 00                	mov    (%eax),%eax
 8048eaa:	3b 45 0c             	cmp    0xc(%ebp),%eax
 8048ead:	7e 1c                	jle    8048ecb <fun7+0x3b>
 8048eaf:	8b 45 08             	mov    0x8(%ebp),%eax
 8048eb2:	8b 50 04             	mov    0x4(%eax),%edx
 8048eb5:	8b 45 0c             	mov    0xc(%ebp),%eax
 8048eb8:	89 44 24 04          	mov    %eax,0x4(%esp)
 8048ebc:	89 14 24             	mov    %edx,(%esp)
 8048ebf:	e8 cc ff ff ff       	call   8048e90 <fun7>
 8048ec4:	01 c0                	add    %eax,%eax
 8048ec6:	89 45 fc             	mov    %eax,-0x4(%ebp)
 8048ec9:	eb 2e                	jmp    8048ef9 <fun7+0x69>
 8048ecb:	8b 45 08             	mov    0x8(%ebp),%eax
 8048ece:	8b 00                	mov    (%eax),%eax
 8048ed0:	3b 45 0c             	cmp    0xc(%ebp),%eax
 8048ed3:	75 09                	jne    8048ede <fun7+0x4e>
 8048ed5:	c7 45 fc 00 00 00 00 	movl   $0x0,-0x4(%ebp)
 8048edc:	eb 1b                	jmp    8048ef9 <fun7+0x69>
 8048ede:	8b 45 08             	mov    0x8(%ebp),%eax
 8048ee1:	8b 50 08             	mov    0x8(%eax),%edx
 8048ee4:	8b 45 0c             	mov    0xc(%ebp),%eax
 8048ee7:	89 44 24 04          	mov    %eax,0x4(%esp)
 8048eeb:	89 14 24             	mov    %edx,(%esp)
 8048eee:	e8 9d ff ff ff       	call   8048e90 <fun7>
 8048ef3:	01 c0                	add    %eax,%eax
 8048ef5:	40                   	inc    %eax
 8048ef6:	89 45 fc             	mov    %eax,-0x4(%ebp)
 8048ef9:	8b 45 fc             	mov    -0x4(%ebp),%eax
 8048efc:	c9                   	leave  
 8048efd:	c3                   	ret    

08048efe <secret_phase>:
 8048efe:	55                   	push   %ebp
 8048eff:	89 e5                	mov    %esp,%ebp
 8048f01:	83 ec 18             	sub    $0x18,%esp
 8048f04:	e8 a9 03 00 00       	call   80492b2 <read_line>
 8048f09:	89 45 f4             	mov    %eax,-0xc(%ebp)
 8048f0c:	8b 45 f4             	mov    -0xc(%ebp),%eax
 8048f0f:	89 04 24             	mov    %eax,(%esp)
 8048f12:	e8 41 f9 ff ff       	call   8048858 <atoi@plt>
 8048f17:	89 45 f8             	mov    %eax,-0x8(%ebp)
 8048f1a:	83 7d f8 00          	cmpl   $0x0,-0x8(%ebp)
 8048f1e:	7e 09                	jle    8048f29 <secret_phase+0x2b>
 8048f20:	81 7d f8 e9 03 00 00 	cmpl   $0x3e9,-0x8(%ebp)
 8048f27:	7e 05                	jle    8048f2e <secret_phase+0x30>
 8048f29:	e8 10 07 00 00       	call   804963e <explode_bomb>
 8048f2e:	8b 45 f8             	mov    -0x8(%ebp),%eax
 8048f31:	89 44 24 04          	mov    %eax,0x4(%esp)
 8048f35:	c7 04 24 f0 a6 04 08 	movl   $0x804a6f0,(%esp)
 8048f3c:	e8 4f ff ff ff       	call   8048e90 <fun7>
 8048f41:	89 45 fc             	mov    %eax,-0x4(%ebp)
 8048f44:	83 7d fc 04          	cmpl   $0x4,-0x4(%ebp)
 8048f48:	74 05                	je     8048f4f <secret_phase+0x51>
 8048f4a:	e8 ef 06 00 00       	call   804963e <explode_bomb>
 8048f4f:	c7 04 24 94 99 04 08 	movl   $0x8049994,(%esp)
 8048f56:	e8 6d f8 ff ff       	call   80487c8 <puts@plt>
 8048f5b:	e8 08 07 00 00       	call   8049668 <phase_defused>
 8048f60:	c9                   	leave  
 8048f61:	c3                   	ret    
 8048f62:	90                   	nop
 8048f63:	90                   	nop

08048f64 <sig_handler>:
 8048f64:	55                   	push   %ebp
 8048f65:	89 e5                	mov    %esp,%ebp
 8048f67:	83 ec 08             	sub    $0x8,%esp
 8048f6a:	c7 04 24 0c 9c 04 08 	movl   $0x8049c0c,(%esp)
 8048f71:	e8 52 f8 ff ff       	call   80487c8 <puts@plt>
 8048f76:	c7 04 24 03 00 00 00 	movl   $0x3,(%esp)
 8048f7d:	e8 66 f8 ff ff       	call   80487e8 <sleep@plt>
 8048f82:	c7 04 24 44 9c 04 08 	movl   $0x8049c44,(%esp)
 8048f89:	e8 8a f8 ff ff       	call   8048818 <printf@plt>
 8048f8e:	a1 40 a8 04 08       	mov    0x804a840,%eax
 8048f93:	89 04 24             	mov    %eax,(%esp)
 8048f96:	e8 ed f7 ff ff       	call   8048788 <fflush@plt>
 8048f9b:	c7 04 24 01 00 00 00 	movl   $0x1,(%esp)
 8048fa2:	e8 41 f8 ff ff       	call   80487e8 <sleep@plt>
 8048fa7:	c7 04 24 4c 9c 04 08 	movl   $0x8049c4c,(%esp)
 8048fae:	e8 15 f8 ff ff       	call   80487c8 <puts@plt>
 8048fb3:	c7 04 24 10 00 00 00 	movl   $0x10,(%esp)
 8048fba:	e8 89 f8 ff ff       	call   8048848 <exit@plt>

08048fbf <invalid_phase>:
 8048fbf:	55                   	push   %ebp
 8048fc0:	89 e5                	mov    %esp,%ebp
 8048fc2:	83 ec 08             	sub    $0x8,%esp
 8048fc5:	8b 45 08             	mov    0x8(%ebp),%eax
 8048fc8:	89 44 24 04          	mov    %eax,0x4(%esp)
 8048fcc:	c7 04 24 54 9c 04 08 	movl   $0x8049c54,(%esp)
 8048fd3:	e8 40 f8 ff ff       	call   8048818 <printf@plt>
 8048fd8:	c7 04 24 08 00 00 00 	movl   $0x8,(%esp)
 8048fdf:	e8 64 f8 ff ff       	call   8048848 <exit@plt>

08048fe4 <read_six_numbers>:
 8048fe4:	55                   	push   %ebp
 8048fe5:	89 e5                	mov    %esp,%ebp
 8048fe7:	56                   	push   %esi
 8048fe8:	53                   	push   %ebx
 8048fe9:	83 ec 30             	sub    $0x30,%esp
 8048fec:	8b 45 0c             	mov    0xc(%ebp),%eax
 8048fef:	83 c0 14             	add    $0x14,%eax
 8048ff2:	8b 55 0c             	mov    0xc(%ebp),%edx
 8048ff5:	83 c2 10             	add    $0x10,%edx
 8048ff8:	8b 4d 0c             	mov    0xc(%ebp),%ecx
 8048ffb:	83 c1 0c             	add    $0xc,%ecx
 8048ffe:	8b 5d 0c             	mov    0xc(%ebp),%ebx
 8049001:	83 c3 08             	add    $0x8,%ebx
 8049004:	8b 75 0c             	mov    0xc(%ebp),%esi
 8049007:	83 c6 04             	add    $0x4,%esi
 804900a:	89 44 24 1c          	mov    %eax,0x1c(%esp)
 804900e:	89 54 24 18          	mov    %edx,0x18(%esp)
 8049012:	89 4c 24 14          	mov    %ecx,0x14(%esp)
 8049016:	89 5c 24 10          	mov    %ebx,0x10(%esp)
 804901a:	89 74 24 0c          	mov    %esi,0xc(%esp)
 804901e:	8b 45 0c             	mov    0xc(%ebp),%eax
 8049021:	89 44 24 08          	mov    %eax,0x8(%esp)
 8049025:	c7 44 24 04 65 9c 04 	movl   $0x8049c65,0x4(%esp)
 804902c:	08 
 804902d:	8b 45 08             	mov    0x8(%ebp),%eax
 8049030:	89 04 24             	mov    %eax,(%esp)
 8049033:	e8 30 f8 ff ff       	call   8048868 <sscanf@plt>
 8049038:	89 45 f4             	mov    %eax,-0xc(%ebp)
 804903b:	83 7d f4 05          	cmpl   $0x5,-0xc(%ebp)
 804903f:	7f 05                	jg     8049046 <read_six_numbers+0x62>
 8049041:	e8 f8 05 00 00       	call   804963e <explode_bomb>
 8049046:	83 c4 30             	add    $0x30,%esp
 8049049:	5b                   	pop    %ebx
 804904a:	5e                   	pop    %esi
 804904b:	5d                   	pop    %ebp
 804904c:	c3                   	ret    

0804904d <string_length>:
 804904d:	55                   	push   %ebp
 804904e:	89 e5                	mov    %esp,%ebp
 8049050:	83 ec 10             	sub    $0x10,%esp
 8049053:	8b 45 08             	mov    0x8(%ebp),%eax
 8049056:	89 45 fc             	mov    %eax,-0x4(%ebp)
 8049059:	c7 45 f8 00 00 00 00 	movl   $0x0,-0x8(%ebp)
 8049060:	eb 06                	jmp    8049068 <string_length+0x1b>
 8049062:	ff 45 fc             	incl   -0x4(%ebp)
 8049065:	ff 45 f8             	incl   -0x8(%ebp)
 8049068:	8b 45 fc             	mov    -0x4(%ebp),%eax
 804906b:	0f b6 00             	movzbl (%eax),%eax
 804906e:	84 c0                	test   %al,%al
 8049070:	75 f0                	jne    8049062 <string_length+0x15>
 8049072:	8b 45 f8             	mov    -0x8(%ebp),%eax
 8049075:	c9                   	leave  
 8049076:	c3                   	ret    

08049077 <strings_not_equal>:
 8049077:	55                   	push   %ebp
 8049078:	89 e5                	mov    %esp,%ebp
 804907a:	53                   	push   %ebx
 804907b:	83 ec 18             	sub    $0x18,%esp
 804907e:	8b 45 08             	mov    0x8(%ebp),%eax
 8049081:	89 04 24             	mov    %eax,(%esp)
 8049084:	e8 c4 ff ff ff       	call   804904d <string_length>
 8049089:	89 c3                	mov    %eax,%ebx
 804908b:	8b 45 0c             	mov    0xc(%ebp),%eax
 804908e:	89 04 24             	mov    %eax,(%esp)
 8049091:	e8 b7 ff ff ff       	call   804904d <string_length>
 8049096:	39 c3                	cmp    %eax,%ebx
 8049098:	74 09                	je     80490a3 <strings_not_equal+0x2c>
 804909a:	c7 45 e8 01 00 00 00 	movl   $0x1,-0x18(%ebp)
 80490a1:	eb 3e                	jmp    80490e1 <strings_not_equal+0x6a>
 80490a3:	8b 45 08             	mov    0x8(%ebp),%eax
 80490a6:	89 45 f4             	mov    %eax,-0xc(%ebp)
 80490a9:	8b 45 0c             	mov    0xc(%ebp),%eax
 80490ac:	89 45 f8             	mov    %eax,-0x8(%ebp)
 80490af:	eb 1f                	jmp    80490d0 <strings_not_equal+0x59>
 80490b1:	8b 45 f4             	mov    -0xc(%ebp),%eax
 80490b4:	0f b6 10             	movzbl (%eax),%edx
 80490b7:	8b 45 f8             	mov    -0x8(%ebp),%eax
 80490ba:	0f b6 00             	movzbl (%eax),%eax
 80490bd:	38 c2                	cmp    %al,%dl
 80490bf:	74 09                	je     80490ca <strings_not_equal+0x53>
 80490c1:	c7 45 e8 01 00 00 00 	movl   $0x1,-0x18(%ebp)
 80490c8:	eb 17                	jmp    80490e1 <strings_not_equal+0x6a>
 80490ca:	ff 45 f4             	incl   -0xc(%ebp)
 80490cd:	ff 45 f8             	incl   -0x8(%ebp)
 80490d0:	8b 45 f4             	mov    -0xc(%ebp),%eax
 80490d3:	0f b6 00             	movzbl (%eax),%eax
 80490d6:	84 c0                	test   %al,%al
 80490d8:	75 d7                	jne    80490b1 <strings_not_equal+0x3a>
 80490da:	c7 45 e8 00 00 00 00 	movl   $0x0,-0x18(%ebp)
 80490e1:	8b 45 e8             	mov    -0x18(%ebp),%eax
 80490e4:	83 c4 18             	add    $0x18,%esp
 80490e7:	5b                   	pop    %ebx
 80490e8:	5d                   	pop    %ebp
 80490e9:	c3                   	ret    

080490ea <open_clientfd>:
 80490ea:	55                   	push   %ebp
 80490eb:	89 e5                	mov    %esp,%ebp
 80490ed:	83 ec 38             	sub    $0x38,%esp
 80490f0:	c7 44 24 08 00 00 00 	movl   $0x0,0x8(%esp)
 80490f7:	00 
 80490f8:	c7 44 24 04 01 00 00 	movl   $0x1,0x4(%esp)
 80490ff:	00 
 8049100:	c7 04 24 02 00 00 00 	movl   $0x2,(%esp)
 8049107:	e8 cc f7 ff ff       	call   80488d8 <socket@plt>
 804910c:	89 45 f8             	mov    %eax,-0x8(%ebp)
 804910f:	83 7d f8 00          	cmpl   $0x0,-0x8(%ebp)
 8049113:	79 18                	jns    804912d <open_clientfd+0x43>
 8049115:	c7 04 24 77 9c 04 08 	movl   $0x8049c77,(%esp)
 804911c:	e8 a7 f6 ff ff       	call   80487c8 <puts@plt>
 8049121:	c7 04 24 08 00 00 00 	movl   $0x8,(%esp)
 8049128:	e8 1b f7 ff ff       	call   8048848 <exit@plt>
 804912d:	8b 45 08             	mov    0x8(%ebp),%eax
 8049130:	89 04 24             	mov    %eax,(%esp)
 8049133:	e8 00 f7 ff ff       	call   8048838 <gethostbyname@plt>
 8049138:	89 45 fc             	mov    %eax,-0x4(%ebp)
 804913b:	83 7d fc 00          	cmpl   $0x0,-0x4(%ebp)
 804913f:	75 18                	jne    8049159 <open_clientfd+0x6f>
 8049141:	c7 04 24 85 9c 04 08 	movl   $0x8049c85,(%esp)
 8049148:	e8 7b f6 ff ff       	call   80487c8 <puts@plt>
 804914d:	c7 04 24 08 00 00 00 	movl   $0x8,(%esp)
 8049154:	e8 ef f6 ff ff       	call   8048848 <exit@plt>
 8049159:	8d 45 e8             	lea    -0x18(%ebp),%eax
 804915c:	c7 00 00 00 00 00    	movl   $0x0,(%eax)
 8049162:	c7 40 04 00 00 00 00 	movl   $0x0,0x4(%eax)
 8049169:	c7 40 08 00 00 00 00 	movl   $0x0,0x8(%eax)
 8049170:	c7 40 0c 00 00 00 00 	movl   $0x0,0xc(%eax)
 8049177:	66 c7 45 e8 02 00    	movw   $0x2,-0x18(%ebp)
 804917d:	8b 45 fc             	mov    -0x4(%ebp),%eax
 8049180:	8b 40 0c             	mov    0xc(%eax),%eax
 8049183:	89 c1                	mov    %eax,%ecx
 8049185:	8d 45 e8             	lea    -0x18(%ebp),%eax
 8049188:	8d 50 04             	lea    0x4(%eax),%edx
 804918b:	8b 45 fc             	mov    -0x4(%ebp),%eax
 804918e:	8b 40 10             	mov    0x10(%eax),%eax
 8049191:	8b 00                	mov    (%eax),%eax
 8049193:	89 4c 24 08          	mov    %ecx,0x8(%esp)
 8049197:	89 54 24 04          	mov    %edx,0x4(%esp)
 804919b:	89 04 24             	mov    %eax,(%esp)
 804919e:	e8 f5 f5 ff ff       	call   8048798 <bcopy@plt>
 80491a3:	8b 45 0c             	mov    0xc(%ebp),%eax
 80491a6:	0f b7 c0             	movzwl %ax,%eax
 80491a9:	89 04 24             	mov    %eax,(%esp)
 80491ac:	e8 c7 f6 ff ff       	call   8048878 <htons@plt>
 80491b1:	0f b7 c0             	movzwl %ax,%eax
 80491b4:	66 89 45 ea          	mov    %ax,-0x16(%ebp)
 80491b8:	8d 45 e8             	lea    -0x18(%ebp),%eax
 80491bb:	c7 44 24 08 10 00 00 	movl   $0x10,0x8(%esp)
 80491c2:	00 
 80491c3:	89 44 24 04          	mov    %eax,0x4(%esp)
 80491c7:	8b 45 f8             	mov    -0x8(%ebp),%eax
 80491ca:	89 04 24             	mov    %eax,(%esp)
 80491cd:	e8 b6 f6 ff ff       	call   8048888 <connect@plt>
 80491d2:	85 c0                	test   %eax,%eax
 80491d4:	79 18                	jns    80491ee <open_clientfd+0x104>
 80491d6:	c7 04 24 93 9c 04 08 	movl   $0x8049c93,(%esp)
 80491dd:	e8 e6 f5 ff ff       	call   80487c8 <puts@plt>
 80491e2:	c7 04 24 08 00 00 00 	movl   $0x8,(%esp)
 80491e9:	e8 5a f6 ff ff       	call   8048848 <exit@plt>
 80491ee:	8b 45 f8             	mov    -0x8(%ebp),%eax
 80491f1:	c9                   	leave  
 80491f2:	c3                   	ret    

080491f3 <initialize_bomb>:
 80491f3:	55                   	push   %ebp
 80491f4:	89 e5                	mov    %esp,%ebp
 80491f6:	83 ec 08             	sub    $0x8,%esp
 80491f9:	c7 44 24 04 64 8f 04 	movl   $0x8048f64,0x4(%esp)
 8049200:	08 
 8049201:	c7 04 24 02 00 00 00 	movl   $0x2,(%esp)
 8049208:	e8 6b f5 ff ff       	call   8048778 <signal@plt>
 804920d:	c9                   	leave  
 804920e:	c3                   	ret    

0804920f <blank_line>:
 804920f:	55                   	push   %ebp
 8049210:	89 e5                	mov    %esp,%ebp
 8049212:	83 ec 08             	sub    $0x8,%esp
 8049215:	eb 32                	jmp    8049249 <blank_line+0x3a>
 8049217:	e8 cc f6 ff ff       	call   80488e8 <__ctype_b_loc@plt>
 804921c:	8b 10                	mov    (%eax),%edx
 804921e:	8b 45 08             	mov    0x8(%ebp),%eax
 8049221:	0f b6 00             	movzbl (%eax),%eax
 8049224:	0f be c0             	movsbl %al,%eax
 8049227:	01 c0                	add    %eax,%eax
 8049229:	8d 04 02             	lea    (%edx,%eax,1),%eax
 804922c:	0f b7 00             	movzwl (%eax),%eax
 804922f:	25 00 20 00 00       	and    $0x2000,%eax
 8049234:	85 c0                	test   %eax,%eax
 8049236:	0f 94 c0             	sete   %al
 8049239:	ff 45 08             	incl   0x8(%ebp)
 804923c:	84 c0                	test   %al,%al
 804923e:	74 09                	je     8049249 <blank_line+0x3a>
 8049240:	c7 45 fc 00 00 00 00 	movl   $0x0,-0x4(%ebp)
 8049247:	eb 11                	jmp    804925a <blank_line+0x4b>
 8049249:	8b 45 08             	mov    0x8(%ebp),%eax
 804924c:	0f b6 00             	movzbl (%eax),%eax
 804924f:	84 c0                	test   %al,%al
 8049251:	75 c4                	jne    8049217 <blank_line+0x8>
 8049253:	c7 45 fc 01 00 00 00 	movl   $0x1,-0x4(%ebp)
 804925a:	8b 45 fc             	mov    -0x4(%ebp),%eax
 804925d:	c9                   	leave  
 804925e:	c3                   	ret    

0804925f <skip>:
 804925f:	55                   	push   %ebp
 8049260:	89 e5                	mov    %esp,%ebp
 8049262:	83 ec 28             	sub    $0x28,%esp
 8049265:	8b 0d 50 a8 04 08    	mov    0x804a850,%ecx
 804926b:	a1 4c a8 04 08       	mov    0x804a84c,%eax
 8049270:	89 c2                	mov    %eax,%edx
 8049272:	89 d0                	mov    %edx,%eax
 8049274:	c1 e0 02             	shl    $0x2,%eax
 8049277:	01 d0                	add    %edx,%eax
 8049279:	c1 e0 04             	shl    $0x4,%eax
 804927c:	05 60 a8 04 08       	add    $0x804a860,%eax
 8049281:	89 4c 24 08          	mov    %ecx,0x8(%esp)
 8049285:	c7 44 24 04 50 00 00 	movl   $0x50,0x4(%esp)
 804928c:	00 
 804928d:	89 04 24             	mov    %eax,(%esp)
 8049290:	e8 43 f5 ff ff       	call   80487d8 <fgets@plt>
 8049295:	89 45 fc             	mov    %eax,-0x4(%ebp)
 8049298:	83 7d fc 00          	cmpl   $0x0,-0x4(%ebp)
 804929c:	74 0f                	je     80492ad <skip+0x4e>
 804929e:	8b 45 fc             	mov    -0x4(%ebp),%eax
 80492a1:	89 04 24             	mov    %eax,(%esp)
 80492a4:	e8 66 ff ff ff       	call   804920f <blank_line>
 80492a9:	85 c0                	test   %eax,%eax
 80492ab:	75 b8                	jne    8049265 <skip+0x6>
 80492ad:	8b 45 fc             	mov    -0x4(%ebp),%eax
 80492b0:	c9                   	leave  
 80492b1:	c3                   	ret    

080492b2 <read_line>:
 80492b2:	55                   	push   %ebp
 80492b3:	89 e5                	mov    %esp,%ebp
 80492b5:	57                   	push   %edi
 80492b6:	83 ec 24             	sub    $0x24,%esp
 80492b9:	e8 a1 ff ff ff       	call   804925f <skip>
 80492be:	89 45 f8             	mov    %eax,-0x8(%ebp)
 80492c1:	83 7d f8 00          	cmpl   $0x0,-0x8(%ebp)
 80492c5:	75 67                	jne    804932e <read_line+0x7c>
 80492c7:	8b 15 50 a8 04 08    	mov    0x804a850,%edx
 80492cd:	a1 44 a8 04 08       	mov    0x804a844,%eax
 80492d2:	39 c2                	cmp    %eax,%edx
 80492d4:	75 13                	jne    80492e9 <read_line+0x37>
 80492d6:	c7 04 24 a1 9c 04 08 	movl   $0x8049ca1,(%esp)
 80492dd:	e8 e6 f4 ff ff       	call   80487c8 <puts@plt>
 80492e2:	e8 57 03 00 00       	call   804963e <explode_bomb>
 80492e7:	eb 45                	jmp    804932e <read_line+0x7c>
 80492e9:	c7 04 24 bf 9c 04 08 	movl   $0x8049cbf,(%esp)
 80492f0:	e8 73 f4 ff ff       	call   8048768 <getenv@plt>
 80492f5:	85 c0                	test   %eax,%eax
 80492f7:	74 0c                	je     8049305 <read_line+0x53>
 80492f9:	c7 04 24 00 00 00 00 	movl   $0x0,(%esp)
 8049300:	e8 43 f5 ff ff       	call   8048848 <exit@plt>
 8049305:	a1 44 a8 04 08       	mov    0x804a844,%eax
 804930a:	a3 50 a8 04 08       	mov    %eax,0x804a850
 804930f:	e8 4b ff ff ff       	call   804925f <skip>
 8049314:	89 45 f8             	mov    %eax,-0x8(%ebp)
 8049317:	83 7d f8 00          	cmpl   $0x0,-0x8(%ebp)
 804931b:	75 11                	jne    804932e <read_line+0x7c>
 804931d:	c7 04 24 a1 9c 04 08 	movl   $0x8049ca1,(%esp)
 8049324:	e8 9f f4 ff ff       	call   80487c8 <puts@plt>
 8049329:	e8 10 03 00 00       	call   804963e <explode_bomb>
 804932e:	a1 4c a8 04 08       	mov    0x804a84c,%eax
 8049333:	89 c2                	mov    %eax,%edx
 8049335:	89 d0                	mov    %edx,%eax
 8049337:	c1 e0 02             	shl    $0x2,%eax
 804933a:	01 d0                	add    %edx,%eax
 804933c:	c1 e0 04             	shl    $0x4,%eax
 804933f:	05 60 a8 04 08       	add    $0x804a860,%eax
 8049344:	b9 ff ff ff ff       	mov    $0xffffffff,%ecx
 8049349:	89 45 e8             	mov    %eax,-0x18(%ebp)
 804934c:	b0 00                	mov    $0x0,%al
 804934e:	fc                   	cld    
 804934f:	8b 7d e8             	mov    -0x18(%ebp),%edi
 8049352:	f2 ae                	repnz scas %es:(%edi),%al
 8049354:	89 c8                	mov    %ecx,%eax
 8049356:	f7 d0                	not    %eax
 8049358:	48                   	dec    %eax
 8049359:	89 45 f4             	mov    %eax,-0xc(%ebp)
 804935c:	83 7d f4 4f          	cmpl   $0x4f,-0xc(%ebp)
 8049360:	75 11                	jne    8049373 <read_line+0xc1>
 8049362:	c7 04 24 ca 9c 04 08 	movl   $0x8049cca,(%esp)
 8049369:	e8 5a f4 ff ff       	call   80487c8 <puts@plt>
 804936e:	e8 cb 02 00 00       	call   804963e <explode_bomb>
 8049373:	8b 15 4c a8 04 08    	mov    0x804a84c,%edx
 8049379:	8b 4d f4             	mov    -0xc(%ebp),%ecx
 804937c:	49                   	dec    %ecx
 804937d:	89 d0                	mov    %edx,%eax
 804937f:	c1 e0 02             	shl    $0x2,%eax
 8049382:	01 d0                	add    %edx,%eax
 8049384:	c1 e0 04             	shl    $0x4,%eax
 8049387:	01 c8                	add    %ecx,%eax
 8049389:	05 60 a8 04 08       	add    $0x804a860,%eax
 804938e:	c6 00 00             	movb   $0x0,(%eax)
 8049391:	8b 0d 4c a8 04 08    	mov    0x804a84c,%ecx
 8049397:	89 ca                	mov    %ecx,%edx
 8049399:	89 d0                	mov    %edx,%eax
 804939b:	c1 e0 02             	shl    $0x2,%eax
 804939e:	01 d0                	add    %edx,%eax
 80493a0:	c1 e0 04             	shl    $0x4,%eax
 80493a3:	05 60 a8 04 08       	add    $0x804a860,%eax
 80493a8:	89 c2                	mov    %eax,%edx
 80493aa:	8d 41 01             	lea    0x1(%ecx),%eax
 80493ad:	a3 4c a8 04 08       	mov    %eax,0x804a84c
 80493b2:	89 d0                	mov    %edx,%eax
 80493b4:	83 c4 24             	add    $0x24,%esp
 80493b7:	5f                   	pop    %edi
 80493b8:	5d                   	pop    %ebp
 80493b9:	c3                   	ret    

080493ba <send_msg>:
 80493ba:	55                   	push   %ebp
 80493bb:	89 e5                	mov    %esp,%ebp
 80493bd:	81 ec 88 00 00 00    	sub    $0x88,%esp
 80493c3:	c7 04 24 00 00 00 00 	movl   $0x0,(%esp)
 80493ca:	e8 d9 f4 ff ff       	call   80488a8 <dup@plt>
 80493cf:	89 45 fc             	mov    %eax,-0x4(%ebp)
 80493d2:	83 7d fc ff          	cmpl   $0xffffffff,-0x4(%ebp)
 80493d6:	75 18                	jne    80493f0 <send_msg+0x36>
 80493d8:	c7 04 24 e5 9c 04 08 	movl   $0x8049ce5,(%esp)
 80493df:	e8 e4 f3 ff ff       	call   80487c8 <puts@plt>
 80493e4:	c7 04 24 08 00 00 00 	movl   $0x8,(%esp)
 80493eb:	e8 58 f4 ff ff       	call   8048848 <exit@plt>
 80493f0:	c7 04 24 00 00 00 00 	movl   $0x0,(%esp)
 80493f7:	e8 3c f3 ff ff       	call   8048738 <close@plt>
 80493fc:	83 f8 ff             	cmp    $0xffffffff,%eax
 80493ff:	75 18                	jne    8049419 <send_msg+0x5f>
 8049401:	c7 04 24 f9 9c 04 08 	movl   $0x8049cf9,(%esp)
 8049408:	e8 bb f3 ff ff       	call   80487c8 <puts@plt>
 804940d:	c7 04 24 08 00 00 00 	movl   $0x8,(%esp)
 8049414:	e8 2f f4 ff ff       	call   8048848 <exit@plt>
 8049419:	e8 3a f3 ff ff       	call   8048758 <tmpfile@plt>
 804941e:	89 45 f0             	mov    %eax,-0x10(%ebp)
 8049421:	83 7d f0 00          	cmpl   $0x0,-0x10(%ebp)
 8049425:	75 18                	jne    804943f <send_msg+0x85>
 8049427:	c7 04 24 0c 9d 04 08 	movl   $0x8049d0c,(%esp)
 804942e:	e8 95 f3 ff ff       	call   80487c8 <puts@plt>
 8049433:	c7 04 24 08 00 00 00 	movl   $0x8,(%esp)
 804943a:	e8 09 f4 ff ff       	call   8048848 <exit@plt>
 804943f:	8b 45 f0             	mov    -0x10(%ebp),%eax
 8049442:	89 44 24 0c          	mov    %eax,0xc(%esp)
 8049446:	c7 44 24 08 1b 00 00 	movl   $0x1b,0x8(%esp)
 804944d:	00 
 804944e:	c7 44 24 04 01 00 00 	movl   $0x1,0x4(%esp)
 8049455:	00 
 8049456:	c7 04 24 21 9d 04 08 	movl   $0x8049d21,(%esp)
 804945d:	e8 66 f4 ff ff       	call   80488c8 <fwrite@plt>
 8049462:	8b 45 f0             	mov    -0x10(%ebp),%eax
 8049465:	89 44 24 04          	mov    %eax,0x4(%esp)
 8049469:	c7 04 24 0a 00 00 00 	movl   $0xa,(%esp)
 8049470:	e8 83 f3 ff ff       	call   80487f8 <fputc@plt>
 8049475:	c7 04 24 00 00 00 00 	movl   $0x0,(%esp)
 804947c:	e8 77 f4 ff ff       	call   80488f8 <cuserid@plt>
 8049481:	89 45 f8             	mov    %eax,-0x8(%ebp)
 8049484:	83 7d f8 00          	cmpl   $0x0,-0x8(%ebp)
 8049488:	75 15                	jne    804949f <send_msg+0xe5>
 804948a:	8d 45 a0             	lea    -0x60(%ebp),%eax
 804948d:	c7 00 6e 6f 62 6f    	movl   $0x6f626f6e,(%eax)
 8049493:	66 c7 40 04 64 79    	movw   $0x7964,0x4(%eax)
 8049499:	c6 40 06 00          	movb   $0x0,0x6(%eax)
 804949d:	eb 12                	jmp    80494b1 <send_msg+0xf7>
 804949f:	8b 45 f8             	mov    -0x8(%ebp),%eax
 80494a2:	89 44 24 04          	mov    %eax,0x4(%esp)
 80494a6:	8d 45 a0             	lea    -0x60(%ebp),%eax
 80494a9:	89 04 24             	mov    %eax,(%esp)
 80494ac:	e8 67 f4 ff ff       	call   8048918 <strcpy@plt>
 80494b1:	a1 4c a8 04 08       	mov    0x804a84c,%eax
 80494b6:	89 45 98             	mov    %eax,-0x68(%ebp)
 80494b9:	83 7d 08 00          	cmpl   $0x0,0x8(%ebp)
 80494bd:	74 09                	je     80494c8 <send_msg+0x10e>
 80494bf:	c7 45 9c 3d 9d 04 08 	movl   $0x8049d3d,-0x64(%ebp)
 80494c6:	eb 07                	jmp    80494cf <send_msg+0x115>
 80494c8:	c7 45 9c 45 9d 04 08 	movl   $0x8049d45,-0x64(%ebp)
 80494cf:	a1 a0 a1 04 08       	mov    0x804a1a0,%eax
 80494d4:	8b 55 98             	mov    -0x68(%ebp),%edx
 80494d7:	89 54 24 18          	mov    %edx,0x18(%esp)
 80494db:	8b 55 9c             	mov    -0x64(%ebp),%edx
 80494de:	89 54 24 14          	mov    %edx,0x14(%esp)
 80494e2:	8d 55 a0             	lea    -0x60(%ebp),%edx
 80494e5:	89 54 24 10          	mov    %edx,0x10(%esp)
 80494e9:	89 44 24 0c          	mov    %eax,0xc(%esp)
 80494ed:	c7 44 24 08 c0 a1 04 	movl   $0x804a1c0,0x8(%esp)
 80494f4:	08 
 80494f5:	c7 44 24 04 4e 9d 04 	movl   $0x8049d4e,0x4(%esp)
 80494fc:	08 
 80494fd:	8b 45 f0             	mov    -0x10(%ebp),%eax
 8049500:	89 04 24             	mov    %eax,(%esp)
 8049503:	e8 40 f2 ff ff       	call   8048748 <fprintf@plt>
 8049508:	c7 45 f4 00 00 00 00 	movl   $0x0,-0xc(%ebp)
 804950f:	eb 4d                	jmp    804955e <send_msg+0x1a4>
 8049511:	8b 55 f4             	mov    -0xc(%ebp),%edx
 8049514:	89 d0                	mov    %edx,%eax
 8049516:	c1 e0 02             	shl    $0x2,%eax
 8049519:	01 d0                	add    %edx,%eax
 804951b:	c1 e0 04             	shl    $0x4,%eax
 804951e:	05 60 a8 04 08       	add    $0x804a860,%eax
 8049523:	8b 55 f4             	mov    -0xc(%ebp),%edx
 8049526:	42                   	inc    %edx
 8049527:	8b 0d a0 a1 04 08    	mov    0x804a1a0,%ecx
 804952d:	89 44 24 18          	mov    %eax,0x18(%esp)
 8049531:	89 54 24 14          	mov    %edx,0x14(%esp)
 8049535:	8d 45 a0             	lea    -0x60(%ebp),%eax
 8049538:	89 44 24 10          	mov    %eax,0x10(%esp)
 804953c:	89 4c 24 0c          	mov    %ecx,0xc(%esp)
 8049540:	c7 44 24 08 c0 a1 04 	movl   $0x804a1c0,0x8(%esp)
 8049547:	08 
 8049548:	c7 44 24 04 6a 9d 04 	movl   $0x8049d6a,0x4(%esp)
 804954f:	08 
 8049550:	8b 45 f0             	mov    -0x10(%ebp),%eax
 8049553:	89 04 24             	mov    %eax,(%esp)
 8049556:	e8 ed f1 ff ff       	call   8048748 <fprintf@plt>
 804955b:	ff 45 f4             	incl   -0xc(%ebp)
 804955e:	a1 4c a8 04 08       	mov    0x804a84c,%eax
 8049563:	39 45 f4             	cmp    %eax,-0xc(%ebp)
 8049566:	7c a9                	jl     8049511 <send_msg+0x157>
 8049568:	8b 45 f0             	mov    -0x10(%ebp),%eax
 804956b:	89 04 24             	mov    %eax,(%esp)
 804956e:	e8 35 f2 ff ff       	call   80487a8 <rewind@plt>
 8049573:	c7 44 24 10 d1 99 04 	movl   $0x80499d1,0x10(%esp)
 804957a:	08 
 804957b:	c7 44 24 0c 86 9d 04 	movl   $0x8049d86,0xc(%esp)
 8049582:	08 
 8049583:	c7 44 24 08 8b 9d 04 	movl   $0x8049d8b,0x8(%esp)
 804958a:	08 
 804958b:	c7 44 24 04 a2 9d 04 	movl   $0x8049da2,0x4(%esp)
 8049592:	08 
 8049593:	c7 04 24 a0 ae 04 08 	movl   $0x804aea0,(%esp)
 804959a:	e8 19 f3 ff ff       	call   80488b8 <sprintf@plt>
 804959f:	c7 04 24 a0 ae 04 08 	movl   $0x804aea0,(%esp)
 80495a6:	e8 0d f2 ff ff       	call   80487b8 <system@plt>
 80495ab:	85 c0                	test   %eax,%eax
 80495ad:	74 18                	je     80495c7 <send_msg+0x20d>
 80495af:	c7 04 24 ab 9d 04 08 	movl   $0x8049dab,(%esp)
 80495b6:	e8 0d f2 ff ff       	call   80487c8 <puts@plt>
 80495bb:	c7 04 24 08 00 00 00 	movl   $0x8,(%esp)
 80495c2:	e8 81 f2 ff ff       	call   8048848 <exit@plt>
 80495c7:	8b 45 f0             	mov    -0x10(%ebp),%eax
 80495ca:	89 04 24             	mov    %eax,(%esp)
 80495cd:	e8 56 f2 ff ff       	call   8048828 <fclose@plt>
 80495d2:	85 c0                	test   %eax,%eax
 80495d4:	74 18                	je     80495ee <send_msg+0x234>
 80495d6:	c7 04 24 c5 9d 04 08 	movl   $0x8049dc5,(%esp)
 80495dd:	e8 e6 f1 ff ff       	call   80487c8 <puts@plt>
 80495e2:	c7 04 24 08 00 00 00 	movl   $0x8,(%esp)
 80495e9:	e8 5a f2 ff ff       	call   8048848 <exit@plt>
 80495ee:	8b 45 fc             	mov    -0x4(%ebp),%eax
 80495f1:	89 04 24             	mov    %eax,(%esp)
 80495f4:	e8 af f2 ff ff       	call   80488a8 <dup@plt>
 80495f9:	85 c0                	test   %eax,%eax
 80495fb:	74 18                	je     8049615 <send_msg+0x25b>
 80495fd:	c7 04 24 de 9d 04 08 	movl   $0x8049dde,(%esp)
 8049604:	e8 bf f1 ff ff       	call   80487c8 <puts@plt>
 8049609:	c7 04 24 08 00 00 00 	movl   $0x8,(%esp)
 8049610:	e8 33 f2 ff ff       	call   8048848 <exit@plt>
 8049615:	8b 45 fc             	mov    -0x4(%ebp),%eax
 8049618:	89 04 24             	mov    %eax,(%esp)
 804961b:	e8 18 f1 ff ff       	call   8048738 <close@plt>
 8049620:	85 c0                	test   %eax,%eax
 8049622:	74 18                	je     804963c <send_msg+0x282>
 8049624:	c7 04 24 f9 9d 04 08 	movl   $0x8049df9,(%esp)
 804962b:	e8 98 f1 ff ff       	call   80487c8 <puts@plt>
 8049630:	c7 04 24 08 00 00 00 	movl   $0x8,(%esp)
 8049637:	e8 0c f2 ff ff       	call   8048848 <exit@plt>
 804963c:	c9                   	leave  
 804963d:	c3                   	ret    

0804963e <explode_bomb>:
 804963e:	55                   	push   %ebp
 804963f:	89 e5                	mov    %esp,%ebp
 8049641:	83 ec 08             	sub    $0x8,%esp
 8049644:	c7 04 24 10 9e 04 08 	movl   $0x8049e10,(%esp)
 804964b:	e8 78 f1 ff ff       	call   80487c8 <puts@plt>
 8049650:	c7 04 24 19 9e 04 08 	movl   $0x8049e19,(%esp)
 8049657:	e8 6c f1 ff ff       	call   80487c8 <puts@plt>
 804965c:	c7 04 24 08 00 00 00 	movl   $0x8,(%esp)
 8049663:	e8 e0 f1 ff ff       	call   8048848 <exit@plt>

08049668 <phase_defused>:
 8049668:	55                   	push   %ebp
 8049669:	89 e5                	mov    %esp,%ebp
 804966b:	83 ec 78             	sub    $0x78,%esp
 804966e:	a1 4c a8 04 08       	mov    0x804a84c,%eax
 8049673:	83 f8 06             	cmp    $0x6,%eax
 8049676:	75 6e                	jne    80496e6 <phase_defused+0x7e>
 8049678:	b8 50 a9 04 08       	mov    $0x804a950,%eax
 804967d:	89 c2                	mov    %eax,%edx
 804967f:	8d 45 ac             	lea    -0x54(%ebp),%eax
 8049682:	89 44 24 0c          	mov    %eax,0xc(%esp)
 8049686:	8d 45 a8             	lea    -0x58(%ebp),%eax
 8049689:	89 44 24 08          	mov    %eax,0x8(%esp)
 804968d:	c7 44 24 04 30 9e 04 	movl   $0x8049e30,0x4(%esp)
 8049694:	08 
 8049695:	89 14 24             	mov    %edx,(%esp)
 8049698:	e8 cb f1 ff ff       	call   8048868 <sscanf@plt>
 804969d:	89 45 fc             	mov    %eax,-0x4(%ebp)
 80496a0:	83 7d fc 02          	cmpl   $0x2,-0x4(%ebp)
 80496a4:	75 34                	jne    80496da <phase_defused+0x72>
 80496a6:	c7 44 24 04 36 9e 04 	movl   $0x8049e36,0x4(%esp)
 80496ad:	08 
 80496ae:	8d 45 ac             	lea    -0x54(%ebp),%eax
 80496b1:	89 04 24             	mov    %eax,(%esp)
 80496b4:	e8 be f9 ff ff       	call   8049077 <strings_not_equal>
 80496b9:	85 c0                	test   %eax,%eax
 80496bb:	75 1d                	jne    80496da <phase_defused+0x72>
 80496bd:	c7 04 24 44 9e 04 08 	movl   $0x8049e44,(%esp)
 80496c4:	e8 ff f0 ff ff       	call   80487c8 <puts@plt>
 80496c9:	c7 04 24 6c 9e 04 08 	movl   $0x8049e6c,(%esp)
 80496d0:	e8 f3 f0 ff ff       	call   80487c8 <puts@plt>
 80496d5:	e8 24 f8 ff ff       	call   8048efe <secret_phase>
 80496da:	c7 04 24 a4 9e 04 08 	movl   $0x8049ea4,(%esp)
 80496e1:	e8 e2 f0 ff ff       	call   80487c8 <puts@plt>
 80496e6:	c9                   	leave  
 80496e7:	c3                   	ret    
 80496e8:	90                   	nop
 80496e9:	90                   	nop
 80496ea:	90                   	nop
 80496eb:	90                   	nop
 80496ec:	90                   	nop
 80496ed:	90                   	nop
 80496ee:	90                   	nop
 80496ef:	90                   	nop

080496f0 <__libc_csu_fini>:
 80496f0:	55                   	push   %ebp
 80496f1:	89 e5                	mov    %esp,%ebp
 80496f3:	57                   	push   %edi
 80496f4:	56                   	push   %esi
 80496f5:	53                   	push   %ebx
 80496f6:	e8 98 00 00 00       	call   8049793 <__i686.get_pc_thunk.bx>
 80496fb:	81 c3 e5 09 00 00    	add    $0x9e5,%ebx
 8049701:	83 ec 0c             	sub    $0xc,%esp
 8049704:	8d 83 20 ff ff ff    	lea    -0xe0(%ebx),%eax
 804970a:	8d bb 20 ff ff ff    	lea    -0xe0(%ebx),%edi
 8049710:	29 f8                	sub    %edi,%eax
 8049712:	c1 f8 02             	sar    $0x2,%eax
 8049715:	8d 70 ff             	lea    -0x1(%eax),%esi
 8049718:	83 fe ff             	cmp    $0xffffffff,%esi
 804971b:	74 0c                	je     8049729 <__libc_csu_fini+0x39>
 804971d:	8d 76 00             	lea    0x0(%esi),%esi
 8049720:	ff 14 b7             	call   *(%edi,%esi,4)
 8049723:	4e                   	dec    %esi
 8049724:	83 fe ff             	cmp    $0xffffffff,%esi
 8049727:	75 f7                	jne    8049720 <__libc_csu_fini+0x30>
 8049729:	8d b4 26 00 00 00 00 	lea    0x0(%esi,%eiz,1),%esi
 8049730:	e8 9f 00 00 00       	call   80497d4 <_fini>
 8049735:	83 c4 0c             	add    $0xc,%esp
 8049738:	5b                   	pop    %ebx
 8049739:	5e                   	pop    %esi
 804973a:	5f                   	pop    %edi
 804973b:	5d                   	pop    %ebp
 804973c:	c3                   	ret    
 804973d:	8d 76 00             	lea    0x0(%esi),%esi

08049740 <__libc_csu_init>:
 8049740:	55                   	push   %ebp
 8049741:	89 e5                	mov    %esp,%ebp
 8049743:	57                   	push   %edi
 8049744:	56                   	push   %esi
 8049745:	53                   	push   %ebx
 8049746:	e8 48 00 00 00       	call   8049793 <__i686.get_pc_thunk.bx>
 804974b:	81 c3 95 09 00 00    	add    $0x995,%ebx
 8049751:	83 ec 0c             	sub    $0xc,%esp
 8049754:	e8 b7 ef ff ff       	call   8048710 <_init>
 8049759:	8d 83 20 ff ff ff    	lea    -0xe0(%ebx),%eax
 804975f:	8d 93 20 ff ff ff    	lea    -0xe0(%ebx),%edx
 8049765:	29 d0                	sub    %edx,%eax
 8049767:	c1 f8 02             	sar    $0x2,%eax
 804976a:	89 45 f0             	mov    %eax,-0x10(%ebp)
 804976d:	74 1c                	je     804978b <__libc_csu_init+0x4b>
 804976f:	31 ff                	xor    %edi,%edi
 8049771:	89 d6                	mov    %edx,%esi
 8049773:	8d b6 00 00 00 00    	lea    0x0(%esi),%esi
 8049779:	8d bc 27 00 00 00 00 	lea    0x0(%edi,%eiz,1),%edi
 8049780:	47                   	inc    %edi
 8049781:	ff 16                	call   *(%esi)
 8049783:	83 c6 04             	add    $0x4,%esi
 8049786:	39 7d f0             	cmp    %edi,-0x10(%ebp)
 8049789:	75 f5                	jne    8049780 <__libc_csu_init+0x40>
 804978b:	83 c4 0c             	add    $0xc,%esp
 804978e:	5b                   	pop    %ebx
 804978f:	5e                   	pop    %esi
 8049790:	5f                   	pop    %edi
 8049791:	5d                   	pop    %ebp
 8049792:	c3                   	ret    

08049793 <__i686.get_pc_thunk.bx>:
 8049793:	8b 1c 24             	mov    (%esp),%ebx
 8049796:	c3                   	ret    
 8049797:	90                   	nop
 8049798:	90                   	nop
 8049799:	90                   	nop
 804979a:	90                   	nop
 804979b:	90                   	nop
 804979c:	90                   	nop
 804979d:	90                   	nop
 804979e:	90                   	nop
 804979f:	90                   	nop

080497a0 <__do_global_ctors_aux>:
 80497a0:	55                   	push   %ebp
 80497a1:	89 e5                	mov    %esp,%ebp
 80497a3:	53                   	push   %ebx
 80497a4:	bb 00 a0 04 08       	mov    $0x804a000,%ebx
 80497a9:	83 ec 04             	sub    $0x4,%esp
 80497ac:	a1 00 a0 04 08       	mov    0x804a000,%eax
 80497b1:	83 f8 ff             	cmp    $0xffffffff,%eax
 80497b4:	74 16                	je     80497cc <__do_global_ctors_aux+0x2c>
 80497b6:	8d 76 00             	lea    0x0(%esi),%esi
 80497b9:	8d bc 27 00 00 00 00 	lea    0x0(%edi,%eiz,1),%edi
 80497c0:	83 eb 04             	sub    $0x4,%ebx
 80497c3:	ff d0                	call   *%eax
 80497c5:	8b 03                	mov    (%ebx),%eax
 80497c7:	83 f8 ff             	cmp    $0xffffffff,%eax
 80497ca:	75 f4                	jne    80497c0 <__do_global_ctors_aux+0x20>
 80497cc:	58                   	pop    %eax
 80497cd:	5b                   	pop    %ebx
 80497ce:	5d                   	pop    %ebp
 80497cf:	90                   	nop
 80497d0:	c3                   	ret    
 80497d1:	90                   	nop
 80497d2:	90                   	nop
 80497d3:	90                   	nop

Disassembly of section .fini:

080497d4 <_fini>:
 80497d4:	55                   	push   %ebp
 80497d5:	89 e5                	mov    %esp,%ebp
 80497d7:	53                   	push   %ebx
 80497d8:	83 ec 04             	sub    $0x4,%esp
 80497db:	e8 00 00 00 00       	call   80497e0 <_fini+0xc>
 80497e0:	5b                   	pop    %ebx
 80497e1:	81 c3 00 09 00 00    	add    $0x900,%ebx
 80497e7:	e8 94 f1 ff ff       	call   8048980 <__do_global_dtors_aux>
 80497ec:	59                   	pop    %ecx
 80497ed:	5b                   	pop    %ebx
 80497ee:	c9                   	leave  
 80497ef:	c3                   	ret    
